target datalayout = "e-m:e-p270:32:32-p271:32:32-p272:64:64-i64:64-i128:128-f80:128-n8:16:32:64-S128"
target triple = "x86_64-pc-linux-gnu"

%struct._zval_struct = type { %union._zend_value, %union.anon.0, %union.anon.3 }
%union._zend_value = type { i64 }
%union.anon.0 = type { i32 }
%union.anon.3 = type { i32 }
%struct._zend_refcounted_h = type { i32, %union.anon }
%union.anon = type { i32 }
%struct.dom_xpath_object = type { %struct.php_dom_xpath_callbacks, i8, %struct._dom_object }
%struct.php_dom_xpath_callbacks = type { ptr, ptr, ptr }
%struct._dom_object = type { ptr, ptr, ptr, %struct._zend_object }
%struct._zend_object = type { %struct._zend_refcounted_h, i32, i32, ptr, ptr, ptr, [1 x %struct._zval_struct] }

; Function Attrs: inlinehint nounwind uwtable
define internal ptr @php_xpath_obj_from_obj(ptr noundef %0) #2 {
  %2 = alloca ptr, align 8
  store ptr %0, ptr %2, align 8, !tbaa !4
  %3 = load ptr, ptr %2, align 8, !tbaa !4
  %4 = getelementptr inbounds i8, ptr %3, i64 -32
  %5 = getelementptr inbounds i8, ptr %4, i64 -24
  ret ptr %5
}

; Function Attrs: nounwind uwtable
define hidden void @dom_xpath_objects_free_storage(ptr noundef %0) #0 {
  %2 = alloca ptr, align 8
  %3 = alloca ptr, align 8
  store ptr %0, ptr %2, align 8, !tbaa !4
  call void @llvm.lifetime.start.p0(i64 8, ptr %3) #13
  %4 = load ptr, ptr %2, align 8, !tbaa !4
  %5 = call ptr @php_xpath_obj_from_obj(ptr noundef %4)
  store ptr %5, ptr %3, align 8, !tbaa !9
  %6 = load ptr, ptr %3, align 8, !tbaa !9
  %7 = getelementptr inbounds nuw %struct.dom_xpath_object, ptr %6, i32 0, i32 2
  %8 = getelementptr inbounds nuw %struct._dom_object, ptr %7, i32 0, i32 3
  call void @zend_object_std_dtor(ptr noundef %8)
  %9 = load ptr, ptr %3, align 8, !tbaa !9
  %10 = getelementptr inbounds nuw %struct.dom_xpath_object, ptr %9, i32 0, i32 2
  %11 = getelementptr inbounds nuw %struct._dom_object, ptr %10, i32 0, i32 0
  %12 = load ptr, ptr %11, align 8, !tbaa !11
  %13 = icmp ne ptr %12, null
  br i1 %13, label %14, label %22

14:                                               ; preds = %1
  %15 = load ptr, ptr %3, align 8, !tbaa !9
  %16 = getelementptr inbounds nuw %struct.dom_xpath_object, ptr %15, i32 0, i32 2
  %17 = getelementptr inbounds nuw %struct._dom_object, ptr %16, i32 0, i32 0
  %18 = load ptr, ptr %17, align 8, !tbaa !11
  call void @xmlXPathFreeContext(ptr noundef %18)
  %19 = load ptr, ptr %3, align 8, !tbaa !9
  %20 = getelementptr inbounds nuw %struct.dom_xpath_object, ptr %19, i32 0, i32 2
  %21 = call i32 @php_libxml_decrement_doc_ref(ptr noundef %20)
  br label %22

22:                                               ; preds = %14, %1
  %23 = load ptr, ptr %3, align 8, !tbaa !9
  %24 = getelementptr inbounds nuw %struct.dom_xpath_object, ptr %23, i32 0, i32 0
  call void @php_dom_xpath_callbacks_dtor(ptr noundef %24)
  call void @llvm.lifetime.end.p0(i64 8, ptr %3) #13
  ret void
}