; Function Attrs: nounwind uwtable
define hidden void @dom_xpath_objects_free_storage(ptr noundef %0) local_unnamed_addr #0 {
  %2 = getelementptr inbounds i8, ptr %0, i64 -24
  tail call void @zend_object_std_dtor(ptr noundef nonnull %0) #12
  %3 = load ptr, ptr %2, align 8, !tbaa !4
  %.not = icmp eq ptr %3, null
  br i1 %.not, label %6, label %4

4:                                                ; preds = %1
  tail call void @xmlXPathFreeContext(ptr noundef nonnull %3) #12
  %5 = tail call i32 @php_libxml_decrement_doc_ref(ptr noundef nonnull %2) #12
  br label %6

6:                                                ; preds = %4, %1
  %7 = getelementptr inbounds i8, ptr %0, i64 -56
  tail call void @php_dom_xpath_callbacks_dtor(ptr noundef nonnull %7) #12
  ret void
}